; Function Attrs: mustprogress uwtable
define void @_ZN6colvar6aspath11apply_forceERK11colvarvalue(ptr noundef nonnull readonly align 8 captures(none) dereferenceable(1712) %0, ptr noundef nonnull align 8 dereferenceable(168) %1) unnamed_addr #2 align 2 {
  %3 = getelementptr inbounds nuw i8, ptr %1, i64 8
  %4 = getelementptr inbounds nuw i8, ptr %0, i64 1624
  %5 = getelementptr inbounds nuw i8, ptr %0, i64 1632
  %6 = load ptr, ptr %5, align 8, !tbaa !136
  %7 = load ptr, ptr %4, align 8, !tbaa !137
  %.not = icmp eq ptr %6, %7
  br i1 %.not, label %._crit_edge, label %.lr.ph

.lr.ph:                                           ; preds = %2
  %8 = getelementptr inbounds nuw i8, ptr %0, i64 1672
  br label %9

._crit_edge:                                      ; preds = %9, %2
  ret void

9:                                                ; preds = %.lr.ph, %9
  %.05 = phi i64 [ 0, %.lr.ph ], [ %13, %9 ]
  %10 = load ptr, ptr %8, align 8, !tbaa !145
  %11 = getelementptr inbounds nuw ptr, ptr %10, i64 %.05
  %12 = load ptr, ptr %11, align 8, !tbaa !146
  tail call void @_ZN12colvarmodule10atom_group18apply_colvar_forceERKd(ptr noundef nonnull align 8 dereferenceable(1496) %12, ptr noundef nonnull align 8 dereferenceable(8) %3)
  %13 = add nuw i64 %.05, 1
  %14 = load ptr, ptr %5, align 8, !tbaa !136
  %15 = load ptr, ptr %4, align 8, !tbaa !137
  %16 = ptrtoint ptr %14 to i64
  %17 = ptrtoint ptr %15 to i64
  %18 = sub i64 %16, %17
  %19 = sdiv exact i64 %18, 24
  %20 = icmp ult i64 %13, %19
  br i1 %20, label %9, label %._crit_edge, !llvm.loop !151
}